target datalayout = "e-m:e-p270:32:32-p271:32:32-p272:64:64-i64:64-i128:128-f80:128-n8:16:32:64-S128"
target triple = "x86_64-pc-linux-gnu"

%"class.icu_77::Calendar" = type <{ %"class.icu_77::UObject", [24 x i32], [24 x i8], i8, [7 x i8], double, ptr, i8, i16, i8, i32, i32, i32, i8, i8, i16, [4 x i8], ptr, ptr }>
%"class.icu_77::UObject" = type { ptr }

; Function Attrs: inlinehint mustprogress nounwind uwtable
define linkonce_odr void @_ZN6icu_778Calendar11internalSetE19UCalendarDateFieldsi(ptr noundef nonnull align 8 dereferenceable(192) %0, i32 noundef %1, i32 noundef %2) #4 comdat align 2 {
  %4 = alloca ptr, align 8
  %5 = alloca i32, align 4
  %6 = alloca i32, align 4
  store ptr %0, ptr %4, align 8, !tbaa !29
  store i32 %1, ptr %5, align 4, !tbaa !13
  store i32 %2, ptr %6, align 4, !tbaa !17
  %7 = load ptr, ptr %4, align 8
  %8 = load i32, ptr %6, align 4, !tbaa !17
  %9 = getelementptr inbounds nuw %"class.icu_77::Calendar", ptr %7, i32 0, i32 1
  %10 = load i32, ptr %5, align 4, !tbaa !13
  %11 = zext i32 %10 to i64
  %12 = getelementptr inbounds nuw [24 x i32], ptr %9, i64 0, i64 %11
  store i32 %8, ptr %12, align 4, !tbaa !17
  %13 = getelementptr inbounds nuw %"class.icu_77::Calendar", ptr %7, i32 0, i32 2
  %14 = load i32, ptr %5, align 4, !tbaa !13
  %15 = zext i32 %14 to i64
  %16 = getelementptr inbounds nuw [24 x i8], ptr %13, i64 0, i64 %15
  store i8 1, ptr %16, align 1, !tbaa !28
  ret void
}

; Function Attrs: inlinehint mustprogress nounwind uwtable
define internal noundef signext i8 @_ZL9U_FAILURE10UErrorCode(i32 noundef %0) #4 {
  %2 = alloca i32, align 4
  store i32 %0, ptr %2, align 4, !tbaa !19
  %3 = load i32, ptr %2, align 4, !tbaa !19
  %4 = icmp sgt i32 %3, 0
  %5 = zext i1 %4 to i8
  ret i8 %5
}

; Function Attrs: mustprogress uwtable
define void @_ZN6icu_7720IslamicCivilCalendar19handleComputeFieldsEiR10UErrorCode(ptr noundef nonnull align 8 dereferenceable(192) %0, i32 noundef %1, ptr noundef nonnull align 4 dereferenceable(4) %2) unnamed_addr #1 align 2 {
  %4 = alloca ptr, align 8
  %5 = alloca i32, align 4
  %6 = alloca ptr, align 8
  %7 = alloca i32, align 4
  %8 = alloca i64, align 8
  %9 = alloca i32, align 4
  %10 = alloca i32, align 4
  %11 = alloca i64, align 8
  %12 = alloca i64, align 8
  store ptr %0, ptr %4, align 8, !tbaa !43
  store i32 %1, ptr %5, align 4, !tbaa !17
  store ptr %2, ptr %6, align 8, !tbaa !12
  %13 = load ptr, ptr %4, align 8
  %14 = load ptr, ptr %6, align 8, !tbaa !12
  %15 = load i32, ptr %14, align 4, !tbaa !19
  %16 = call noundef signext i8 @_ZL9U_FAILURE10UErrorCode(i32 noundef %15)
  %17 = icmp ne i8 %16, 0
  br i1 %17, label %18, label %19

18:                                               ; preds = %3
  br label %124

19:                                               ; preds = %3
  call void @llvm.lifetime.start.p0(i64 4, ptr %7) #8
  %20 = load i32, ptr %5, align 4, !tbaa !17
  %21 = load ptr, ptr %13, align 8, !tbaa !8
  %22 = getelementptr inbounds ptr, ptr %21, i64 58
  %23 = load ptr, ptr %22, align 8
  %24 = call noundef i32 %23(ptr noundef nonnull align 8 dereferenceable(192) %13)
  %25 = sub nsw i32 %20, %24
  store i32 %25, ptr %7, align 4, !tbaa !17
  call void @llvm.lifetime.start.p0(i64 8, ptr %8) #8
  %26 = load i32, ptr %7, align 4, !tbaa !17
  %27 = sext i32 %26 to i64
  %28 = mul nsw i64 30, %27
  %29 = add nsw i64 %28, 10646
  %30 = call noundef i64 @_ZN6icu_779ClockMath16floorDivideInt64Ell(i64 noundef %29, i64 noundef 10631)
  store i64 %30, ptr %8, align 8, !tbaa !21
  call void @llvm.lifetime.start.p0(i64 4, ptr %9) #8
  %31 = load i32, ptr %7, align 4, !tbaa !17
  %32 = sub nsw i32 %31, 29
  %33 = sext i32 %32 to i64
  %34 = load i64, ptr %8, align 8, !tbaa !21
  %35 = trunc i64 %34 to i32
  %36 = load ptr, ptr %6, align 8, !tbaa !12
  %37 = load ptr, ptr %13, align 8, !tbaa !8
  %38 = getelementptr inbounds ptr, ptr %37, i64 56
  %39 = load ptr, ptr %38, align 8
  %40 = call noundef i64 %39(ptr noundef nonnull align 8 dereferenceable(192) %13, i32 noundef %35, ptr noundef nonnull align 4 dereferenceable(4) %36)
  %41 = sub nsw i64 %33, %40
  %42 = sitofp i64 %41 to double
  %43 = fdiv double %42, 2.950000e+01
  %44 = call double @uprv_ceil_77(double noundef %43)
  %45 = fptosi double %44 to i32
  store i32 %45, ptr %9, align 4, !tbaa !17
  %46 = load ptr, ptr %6, align 8, !tbaa !12
  %47 = load i32, ptr %46, align 4, !tbaa !19
  %48 = call noundef signext i8 @_ZL9U_FAILURE10UErrorCode(i32 noundef %47)
  %49 = icmp ne i8 %48, 0
  br i1 %49, label %50, label %51

50:                                               ; preds = %19
  store i32 1, ptr %10, align 4
  br label %122

51:                                               ; preds = %19
  %52 = load i32, ptr %9, align 4, !tbaa !17
  %53 = icmp slt i32 %52, 11
  br i1 %53, label %54, label %56

54:                                               ; preds = %51
  %55 = load i32, ptr %9, align 4, !tbaa !17
  br label %57

56:                                               ; preds = %51
  br label %57

57:                                               ; preds = %56, %54
  %58 = phi i32 [ %55, %54 ], [ 11, %56 ]
  store i32 %58, ptr %9, align 4, !tbaa !17
  call void @llvm.lifetime.start.p0(i64 8, ptr %11) #8
  %59 = load i32, ptr %7, align 4, !tbaa !17
  %60 = sext i32 %59 to i64
  %61 = load i64, ptr %8, align 8, !tbaa !21
  %62 = trunc i64 %61 to i32
  %63 = load i32, ptr %9, align 4, !tbaa !17
  %64 = load ptr, ptr %6, align 8, !tbaa !12
  %65 = load ptr, ptr %13, align 8, !tbaa !8
  %66 = getelementptr inbounds ptr, ptr %65, i64 57
  %67 = load ptr, ptr %66, align 8
  %68 = call noundef i64 %67(ptr noundef nonnull align 8 dereferenceable(192) %13, i32 noundef %62, i32 noundef %63, ptr noundef nonnull align 4 dereferenceable(4) %64)
  %69 = sub nsw i64 %60, %68
  %70 = add nsw i64 %69, 1
  store i64 %70, ptr %11, align 8, !tbaa !21
  %71 = load ptr, ptr %6, align 8, !tbaa !12
  %72 = load i32, ptr %71, align 4, !tbaa !19
  %73 = call noundef signext i8 @_ZL9U_FAILURE10UErrorCode(i32 noundef %72)
  %74 = icmp ne i8 %73, 0
  br i1 %74, label %75, label %76

75:                                               ; preds = %57
  store i32 1, ptr %10, align 4
  br label %121

76:                                               ; preds = %57
  %77 = load i64, ptr %11, align 8, !tbaa !21
  %78 = icmp sgt i64 %77, 2147483647
  br i1 %78, label %82, label %79

79:                                               ; preds = %76
  %80 = load i64, ptr %11, align 8, !tbaa !21
  %81 = icmp slt i64 %80, -2147483648
  br i1 %81, label %82, label %84

82:                                               ; preds = %79, %76
  %83 = load ptr, ptr %6, align 8, !tbaa !12
  store i32 1, ptr %83, align 4, !tbaa !19
  store i32 1, ptr %10, align 4
  br label %121

84:                                               ; preds = %79
  call void @llvm.lifetime.start.p0(i64 8, ptr %12) #8
  %85 = load i32, ptr %7, align 4, !tbaa !17
  %86 = sext i32 %85 to i64
  %87 = load i64, ptr %8, align 8, !tbaa !21
  %88 = trunc i64 %87 to i32
  %89 = load ptr, ptr %6, align 8, !tbaa !12
  %90 = load ptr, ptr %13, align 8, !tbaa !8
  %91 = getelementptr inbounds ptr, ptr %90, i64 57
  %92 = load ptr, ptr %91, align 8
  %93 = call noundef i64 %92(ptr noundef nonnull align 8 dereferenceable(192) %13, i32 noundef %88, i32 noundef 0, ptr noundef nonnull align 4 dereferenceable(4) %89)
  %94 = sub nsw i64 %86, %93
  %95 = add nsw i64 %94, 1
  store i64 %95, ptr %12, align 8, !tbaa !21
  %96 = load ptr, ptr %6, align 8, !tbaa !12
  %97 = load i32, ptr %96, align 4, !tbaa !19
  %98 = call noundef signext i8 @_ZL9U_FAILURE10UErrorCode(i32 noundef %97)
  %99 = icmp ne i8 %98, 0
  br i1 %99, label %100, label %101

100:                                              ; preds = %84
  store i32 1, ptr %10, align 4
  br label %120

101:                                              ; preds = %84
  %102 = load i64, ptr %12, align 8, !tbaa !21
  %103 = icmp sgt i64 %102, 2147483647
  br i1 %103, label %107, label %104

104:                                              ; preds = %101
  %105 = load i64, ptr %12, align 8, !tbaa !21
  %106 = icmp slt i64 %105, -2147483648
  br i1 %106, label %107, label %109

107:                                              ; preds = %104, %101
  %108 = load ptr, ptr %6, align 8, !tbaa !12
  store i32 1, ptr %108, align 4, !tbaa !19
  store i32 1, ptr %10, align 4
  br label %120

109:                                              ; preds = %104
  call void @_ZN6icu_778Calendar11internalSetE19UCalendarDateFieldsi(ptr noundef nonnull align 8 dereferenceable(192) %13, i32 noundef 0, i32 noundef 0)
  %110 = load i64, ptr %8, align 8, !tbaa !21
  %111 = trunc i64 %110 to i32
  call void @_ZN6icu_778Calendar11internalSetE19UCalendarDateFieldsi(ptr noundef nonnull align 8 dereferenceable(192) %13, i32 noundef 1, i32 noundef %111)
  %112 = load i64, ptr %8, align 8, !tbaa !21
  %113 = trunc i64 %112 to i32
  call void @_ZN6icu_778Calendar11internalSetE19UCalendarDateFieldsi(ptr noundef nonnull align 8 dereferenceable(192) %13, i32 noundef 19, i32 noundef %113)
  %114 = load i32, ptr %9, align 4, !tbaa !17
  call void @_ZN6icu_778Calendar11internalSetE19UCalendarDateFieldsi(ptr noundef nonnull align 8 dereferenceable(192) %13, i32 noundef 2, i32 noundef %114)
  %115 = load i32, ptr %9, align 4, !tbaa !17
  call void @_ZN6icu_778Calendar11internalSetE19UCalendarDateFieldsi(ptr noundef nonnull align 8 dereferenceable(192) %13, i32 noundef 23, i32 noundef %115)
  %116 = load i64, ptr %11, align 8, !tbaa !21
  %117 = trunc i64 %116 to i32
  call void @_ZN6icu_778Calendar11internalSetE19UCalendarDateFieldsi(ptr noundef nonnull align 8 dereferenceable(192) %13, i32 noundef 5, i32 noundef %117)
  %118 = load i64, ptr %12, align 8, !tbaa !21
  %119 = trunc i64 %118 to i32
  call void @_ZN6icu_778Calendar11internalSetE19UCalendarDateFieldsi(ptr noundef nonnull align 8 dereferenceable(192) %13, i32 noundef 6, i32 noundef %119)
  store i32 0, ptr %10, align 4
  br label %120

120:                                              ; preds = %109, %107, %100
  call void @llvm.lifetime.end.p0(i64 8, ptr %12) #8
  br label %121

121:                                              ; preds = %120, %82, %75
  call void @llvm.lifetime.end.p0(i64 8, ptr %11) #8
  br label %122

122:                                              ; preds = %121, %50
  call void @llvm.lifetime.end.p0(i64 4, ptr %9) #8
  call void @llvm.lifetime.end.p0(i64 8, ptr %8) #8
  call void @llvm.lifetime.end.p0(i64 4, ptr %7) #8
  %123 = load i32, ptr %10, align 4
  switch i32 %123, label %125 [
    i32 0, label %124
    i32 1, label %124
  ]

124:                                              ; preds = %18, %122, %122
  ret void

125:                                              ; preds = %122
  unreachable
}