; Function Attrs: mustprogress uwtable
define void @_ZN6icu_7720IslamicCivilCalendar19handleComputeFieldsEiR10UErrorCode(ptr noundef nonnull align 8 dereferenceable(192) %0, i32 noundef %1, ptr noundef nonnull align 4 dereferenceable(4) %2) unnamed_addr #1 align 2 {
  %4 = load i32, ptr %2, align 4, !tbaa !9
  %5 = icmp slt i32 %4, 1
  br i1 %5, label %6, label %72

6:                                                ; preds = %3
  %7 = load ptr, ptr %0, align 8, !tbaa !3
  %8 = getelementptr inbounds nuw i8, ptr %7, i64 464
  %9 = load ptr, ptr %8, align 8
  %10 = tail call noundef i32 %9(ptr noundef nonnull align 8 dereferenceable(192) %0)
  %11 = sub nsw i32 %1, %10
  %12 = sext i32 %11 to i64
  %13 = mul nsw i64 %12, 30
  %14 = add nsw i64 %13, 10646
  %15 = tail call noundef i64 @_ZN6icu_779ClockMath16floorDivideInt64Ell(i64 noundef %14, i64 noundef 10631)
  %16 = add nsw i32 %11, -29
  %17 = sext i32 %16 to i64
  %18 = trunc i64 %15 to i32
  %19 = load ptr, ptr %0, align 8, !tbaa !3
  %20 = getelementptr inbounds nuw i8, ptr %19, i64 448
  %21 = load ptr, ptr %20, align 8
  %22 = tail call noundef i64 %21(ptr noundef nonnull align 8 dereferenceable(192) %0, i32 noundef %18, ptr noundef nonnull align 4 dereferenceable(4) %2)
  %23 = sub nsw i64 %17, %22
  %24 = sitofp i64 %23 to double
  %25 = fdiv double %24, 2.950000e+01
  %26 = tail call double @uprv_ceil_77(double noundef %25)
  %27 = load i32, ptr %2, align 4, !tbaa !9
  %28 = icmp slt i32 %27, 1
  br i1 %28, label %29, label %72

29:                                               ; preds = %6
  %30 = fptosi double %26 to i32
  %31 = tail call i32 @llvm.smin.i32(i32 %30, i32 11)
  %32 = load ptr, ptr %0, align 8, !tbaa !3
  %33 = getelementptr inbounds nuw i8, ptr %32, i64 456
  %34 = load ptr, ptr %33, align 8
  %35 = tail call noundef i64 %34(ptr noundef nonnull align 8 dereferenceable(192) %0, i32 noundef %18, i32 noundef %31, ptr noundef nonnull align 4 dereferenceable(4) %2)
  %36 = sub nsw i64 %12, %35
  %37 = load i32, ptr %2, align 4, !tbaa !9
  %38 = icmp slt i32 %37, 1
  br i1 %38, label %39, label %72

39:                                               ; preds = %29
  %40 = add i64 %36, -2147483647
  %or.cond = icmp ult i64 %40, -4294967296
  br i1 %or.cond, label %41, label %42

41:                                               ; preds = %39
  store i32 1, ptr %2, align 4, !tbaa !9
  br label %72

42:                                               ; preds = %39
  %43 = load ptr, ptr %0, align 8, !tbaa !3
  %44 = getelementptr inbounds nuw i8, ptr %43, i64 456
  %45 = load ptr, ptr %44, align 8
  %46 = tail call noundef i64 %45(ptr noundef nonnull align 8 dereferenceable(192) %0, i32 noundef %18, i32 noundef 0, ptr noundef nonnull align 4 dereferenceable(4) %2)
  %47 = sub nsw i64 %12, %46
  %48 = load i32, ptr %2, align 4, !tbaa !9
  %49 = icmp slt i32 %48, 1
  br i1 %49, label %50, label %72

50:                                               ; preds = %42
  %51 = add i64 %47, -2147483647
  %or.cond3 = icmp ult i64 %51, -4294967296
  br i1 %or.cond3, label %52, label %53

52:                                               ; preds = %50
  store i32 1, ptr %2, align 4, !tbaa !9
  br label %72

53:                                               ; preds = %50
  %54 = getelementptr inbounds nuw i8, ptr %0, i64 8
  store i32 0, ptr %54, align 8, !tbaa !6
  %55 = getelementptr inbounds nuw i8, ptr %0, i64 104
  store i8 1, ptr %55, align 8, !tbaa !16
  %56 = getelementptr inbounds nuw i8, ptr %0, i64 12
  store i32 %18, ptr %56, align 4, !tbaa !6
  %57 = getelementptr inbounds nuw i8, ptr %0, i64 105
  store i8 1, ptr %57, align 1, !tbaa !16
  %58 = getelementptr inbounds nuw i8, ptr %0, i64 84
  store i32 %18, ptr %58, align 4, !tbaa !6
  %59 = getelementptr inbounds nuw i8, ptr %0, i64 123
  store i8 1, ptr %59, align 1, !tbaa !16
  %60 = getelementptr inbounds nuw i8, ptr %0, i64 16
  store i32 %31, ptr %60, align 8, !tbaa !6
  %61 = getelementptr inbounds nuw i8, ptr %0, i64 106
  store i8 1, ptr %61, align 2, !tbaa !16
  %62 = getelementptr inbounds nuw i8, ptr %0, i64 100
  store i32 %31, ptr %62, align 4, !tbaa !6
  %63 = getelementptr inbounds nuw i8, ptr %0, i64 127
  store i8 1, ptr %63, align 1, !tbaa !16
  %64 = trunc i64 %36 to i32
  %65 = add i32 %64, 1
  %66 = getelementptr inbounds nuw i8, ptr %0, i64 28
  store i32 %65, ptr %66, align 4, !tbaa !6
  %67 = getelementptr inbounds nuw i8, ptr %0, i64 109
  store i8 1, ptr %67, align 1, !tbaa !16
  %68 = trunc i64 %47 to i32
  %69 = add i32 %68, 1
  %70 = getelementptr inbounds nuw i8, ptr %0, i64 32
  store i32 %69, ptr %70, align 8, !tbaa !6
  %71 = getelementptr inbounds nuw i8, ptr %0, i64 110
  store i8 1, ptr %71, align 2, !tbaa !16
  br label %72

72:                                               ; preds = %6, %52, %53, %42, %29, %41, %3
  ret void
}